target datalayout = "e-m:e-p270:32:32-p271:32:32-p272:64:64-i64:64-i128:128-f80:128-n8:16:32:64-S128"
target triple = "x86_64-unknown-linux-gnu"

@.str.5 = private unnamed_addr constant [5 x i8] c"DATA\00", align 1
@.str.6 = private unnamed_addr constant [8 x i8] c"HEADERS\00", align 1
@.str.7 = private unnamed_addr constant [12 x i8] c"CANCEL_PUSH\00", align 1
@.str.8 = private unnamed_addr constant [9 x i8] c"SETTINGS\00", align 1
@.str.9 = private unnamed_addr constant [13 x i8] c"PUSH_PROMISE\00", align 1
@.str.10 = private unnamed_addr constant [7 x i8] c"GOAWAY\00", align 1
@.str.11 = private unnamed_addr constant [12 x i8] c"MAX_PUSH_ID\00", align 1
@.str.12 = private unnamed_addr constant [16 x i8] c"PRIORITY_UPDATE\00", align 1
@.str.13 = private unnamed_addr constant [21 x i8] c"PUSH_PRIORITY_UPDATE\00", align 1
@.str.14 = private unnamed_addr constant [7 x i8] c"GREASE\00", align 1
@.str.15 = private unnamed_addr constant [8 x i8] c"Unknown\00", align 1

; Function Attrs: mustprogress nounwind uwtable
define noundef zeroext i1 @_ZN8proxygen2hq10isGreaseIdEm(i64 noundef %id) #5 {
entry:
  %retval = alloca i1, align 1
  %id.addr = alloca i64, align 8
  store i64 %id, ptr %id.addr, align 8
  %0 = load i64, ptr %id.addr, align 8
  %cmp = icmp ult i64 %0, 33
  br i1 %cmp, label %if.then, label %lor.lhs.false

lor.lhs.false:                                    ; preds = %entry
  %1 = load i64, ptr %id.addr, align 8
  %cmp1 = icmp ugt i64 %1, 4611686018427387903
  br i1 %cmp1, label %if.then, label %if.end

if.then:                                          ; preds = %lor.lhs.false, %entry
  store i1 false, ptr %retval, align 1
  br label %return

if.end:                                           ; preds = %lor.lhs.false
  %2 = load i64, ptr %id.addr, align 8
  %sub = sub i64 %2, 33
  %rem = urem i64 %sub, 31
  %cmp2 = icmp eq i64 %rem, 0
  store i1 %cmp2, ptr %retval, align 1
  br label %return

return:                                           ; preds = %if.end, %if.then
  %3 = load i1, ptr %retval, align 1
  ret i1 %3
}

; Function Attrs: mustprogress nounwind uwtable
define noundef ptr @_ZN8proxygen2hq18getFrameTypeStringENS0_9FrameTypeE(i64 noundef %type) #5 {
entry:
  %retval = alloca ptr, align 8
  %type.addr = alloca i64, align 8
  store i64 %type, ptr %type.addr, align 8
  %0 = load i64, ptr %type.addr, align 8
  switch i64 %0, label %sw.default [
    i64 0, label %sw.bb
    i64 1, label %sw.bb1
    i64 3, label %sw.bb2
    i64 4, label %sw.bb3
    i64 5, label %sw.bb4
    i64 7, label %sw.bb5
    i64 13, label %sw.bb6
    i64 984832, label %sw.bb7
    i64 63232, label %sw.bb7
    i64 984833, label %sw.bb8
    i64 63233, label %sw.bb8
  ]

sw.bb:                                            ; preds = %entry
  store ptr @.str.5, ptr %retval, align 8
  br label %return

sw.bb1:                                           ; preds = %entry
  store ptr @.str.6, ptr %retval, align 8
  br label %return

sw.bb2:                                           ; preds = %entry
  store ptr @.str.7, ptr %retval, align 8
  br label %return

sw.bb3:                                           ; preds = %entry
  store ptr @.str.8, ptr %retval, align 8
  br label %return

sw.bb4:                                           ; preds = %entry
  store ptr @.str.9, ptr %retval, align 8
  br label %return

sw.bb5:                                           ; preds = %entry
  store ptr @.str.10, ptr %retval, align 8
  br label %return

sw.bb6:                                           ; preds = %entry
  store ptr @.str.11, ptr %retval, align 8
  br label %return

sw.bb7:                                           ; preds = %entry, %entry
  store ptr @.str.12, ptr %retval, align 8
  br label %return

sw.bb8:                                           ; preds = %entry, %entry
  store ptr @.str.13, ptr %retval, align 8
  br label %return

sw.default:                                       ; preds = %entry
  %1 = load i64, ptr %type.addr, align 8
  %call = call noundef zeroext i1 @_ZN8proxygen2hq10isGreaseIdEm(i64 noundef %1)
  br i1 %call, label %if.then, label %if.end

if.then:                                          ; preds = %sw.default
  store ptr @.str.14, ptr %retval, align 8
  br label %return

if.end:                                           ; preds = %sw.default
  store ptr @.str.15, ptr %retval, align 8
  br label %return

return:                                           ; preds = %if.end, %if.then, %sw.bb8, %sw.bb7, %sw.bb6, %sw.bb5, %sw.bb4, %sw.bb3, %sw.bb2, %sw.bb1, %sw.bb
  %2 = load ptr, ptr %retval, align 8
  ret ptr %2
}