; Function Attrs: mustprogress nofree norecurse nosync nounwind willreturn memory(none) uwtable
define noundef nonnull ptr @_ZN8proxygen2hq18getFrameTypeStringENS0_9FrameTypeE(i64 noundef %type) local_unnamed_addr #3 {
entry:
  switch i64 %type, label %sw.default [
    i64 0, label %return
    i64 1, label %sw.bb1
    i64 3, label %sw.bb2
    i64 4, label %sw.bb3
    i64 5, label %sw.bb4
    i64 7, label %sw.bb5
    i64 13, label %sw.bb6
    i64 984832, label %sw.bb7
    i64 63232, label %sw.bb7
    i64 984833, label %sw.bb8
    i64 63233, label %sw.bb8
  ]

sw.bb1:                                           ; preds = %entry
  br label %return

sw.bb2:                                           ; preds = %entry
  br label %return

sw.bb3:                                           ; preds = %entry
  br label %return

sw.bb4:                                           ; preds = %entry
  br label %return

sw.bb5:                                           ; preds = %entry
  br label %return

sw.bb6:                                           ; preds = %entry
  br label %return

sw.bb7:                                           ; preds = %entry, %entry
  br label %return

sw.bb8:                                           ; preds = %entry, %entry
  br label %return

sw.default:                                       ; preds = %entry
  %0 = add i64 %type, -4611686018427387904
  %or.cond.i = icmp ult i64 %0, -4611686018427387871
  br i1 %or.cond.i, label %return, label %_ZN8proxygen2hq10isGreaseIdEm.exit

_ZN8proxygen2hq10isGreaseIdEm.exit:               ; preds = %sw.default
  %sub.i = add nsw i64 %type, -33
  %rem.i = urem i64 %sub.i, 31
  %cmp2.i = icmp eq i64 %rem.i, 0
  %spec.select = select i1 %cmp2.i, ptr @.str.14, ptr @.str.15
  br label %return

return:                                           ; preds = %_ZN8proxygen2hq10isGreaseIdEm.exit, %sw.default, %entry, %sw.bb8, %sw.bb7, %sw.bb6, %sw.bb5, %sw.bb4, %sw.bb3, %sw.bb2, %sw.bb1
  %retval.0 = phi ptr [ @.str.13, %sw.bb8 ], [ @.str.12, %sw.bb7 ], [ @.str.11, %sw.bb6 ], [ @.str.10, %sw.bb5 ], [ @.str.9, %sw.bb4 ], [ @.str.8, %sw.bb3 ], [ @.str.7, %sw.bb2 ], [ @.str.6, %sw.bb1 ], [ @.str.5, %entry ], [ @.str.15, %sw.default ], [ %spec.select, %_ZN8proxygen2hq10isGreaseIdEm.exit ]
  ret ptr %retval.0
}